; Function Attrs: mustprogress nofree norecurse nosync nounwind willreturn memory(read, inaccessiblemem: none) uwtable
define range(i32 -2147483647, -2147483648) i32 @lv_obj_get_scroll_y(ptr nocapture noundef readonly %0) local_unnamed_addr #2 {
  %2 = getelementptr inbounds nuw i8, ptr %0, i64 16
  %3 = load ptr, ptr %2, align 8, !tbaa !3
  %4 = icmp eq ptr %3, null
  br i1 %4, label %9, label %5

5:                                                ; preds = %1
  %6 = getelementptr inbounds nuw i8, ptr %3, i64 52
  %7 = load i32, ptr %6, align 4, !tbaa !17
  %8 = sub nsw i32 0, %7
  br label %9

9:                                                ; preds = %1, %5
  %.0 = phi i32 [ %8, %5 ], [ 0, %1 ]
  ret i32 %.0
}